; ModuleID = '55/1651.cpp'
source_filename = "55/1651.cpp"
target datalayout = "e-m:e-p270:32:32-p271:32:32-p272:64:64-i64:64-f80:128-n8:16:32:64-S128"
target triple = "x86_64-pc-linux-gnu"

%"class.std::ios_base::Init" = type { i8 }
%"class.std::basic_istream" = type { i32 (...)**, i64, %"class.std::basic_ios" }
%"class.std::basic_ios" = type { %"class.std::ios_base", %"class.std::basic_ostream"*, i8, i8, %"class.std::basic_streambuf"*, %"class.std::ctype"*, %"class.std::num_put"*, %"class.std::num_get"* }
%"class.std::ios_base" = type { i32 (...)**, i64, i64, i32, i32, i32, %"struct.std::ios_base::_Callback_list"*, %"struct.std::ios_base::_Words", [8 x %"struct.std::ios_base::_Words"], i32, %"struct.std::ios_base::_Words"*, %"class.std::locale" }
%"struct.std::ios_base::_Callback_list" = type { %"struct.std::ios_base::_Callback_list"*, void (i32, %"class.std::ios_base"*, i32)*, i32, i32 }
%"struct.std::ios_base::_Words" = type { i8*, i64 }
%"class.std::locale" = type { %"class.std::locale::_Impl"* }
%"class.std::locale::_Impl" = type { i32, %"class.std::locale::facet"**, i64, %"class.std::locale::facet"**, i8** }
%"class.std::locale::facet" = type <{ i32 (...)**, i32, [4 x i8] }>
%"class.std::basic_ostream" = type { i32 (...)**, %"class.std::basic_ios" }
%"class.std::basic_streambuf" = type { i32 (...)**, i8*, i8*, i8*, i8*, i8*, i8*, %"class.std::locale" }
%"class.std::ctype" = type <{ %"class.std::locale::facet.base", [4 x i8], %struct.__locale_struct*, i8, [7 x i8], i32*, i32*, i16*, i8, [256 x i8], [256 x i8], i8, [6 x i8] }>
%"class.std::locale::facet.base" = type <{ i32 (...)**, i32 }>
%struct.__locale_struct = type { [13 x %struct.__locale_data*], i16*, i32*, i32*, [13 x i8*] }
%struct.__locale_data = type opaque
%"class.std::num_put" = type { %"class.std::locale::facet.base", [4 x i8] }
%"class.std::num_get" = type { %"class.std::locale::facet.base", [4 x i8] }

@_ZStL8__ioinit = internal global %"class.std::ios_base::Init" zeroinitializer, align 1
@__dso_handle = external hidden global i8
@_ZSt3cin = external dso_local global %"class.std::basic_istream", align 8
@_ZSt4cout = external dso_local global %"class.std::basic_ostream", align 8
@llvm.global_ctors = appending global [1 x { i32, void ()*, i8* }] [{ i32, void ()*, i8* } { i32 65535, void ()* @_GLOBAL__sub_I_1651.cpp, i8* null }]

; Function Attrs: noinline uwtable
define internal void @__cxx_global_var_init() #0 section ".text.startup" {
  call void @_ZNSt8ios_base4InitC1Ev(%"class.std::ios_base::Init"* @_ZStL8__ioinit)
  %1 = call i32 @__cxa_atexit(void (i8*)* bitcast (void (%"class.std::ios_base::Init"*)* @_ZNSt8ios_base4InitD1Ev to void (i8*)*), i8* getelementptr inbounds (%"class.std::ios_base::Init", %"class.std::ios_base::Init"* @_ZStL8__ioinit, i32 0, i32 0), i8* @__dso_handle) #3
  ret void
}

declare dso_local void @_ZNSt8ios_base4InitC1Ev(%"class.std::ios_base::Init"*) unnamed_addr #1

; Function Attrs: nounwind
declare dso_local void @_ZNSt8ios_base4InitD1Ev(%"class.std::ios_base::Init"*) unnamed_addr #2

; Function Attrs: nounwind
declare dso_local i32 @__cxa_atexit(void (i8*)*, i8*, i8*) #3

; Function Attrs: noinline norecurse uwtable
define dso_local i32 @main() #4 {
  %1 = alloca i32, align 4
  %2 = alloca i32, align 4
  %3 = alloca i32, align 4
  %4 = alloca i32, align 4
  %5 = alloca [200 x i8], align 16
  %6 = alloca i32, align 4
  %7 = alloca i32, align 4
  %8 = alloca i32, align 4
  %9 = alloca [120 x i8], align 16
  %10 = alloca i32, align 4
  store i32 0, i32* %1, align 4
  store i32 0, i32* %4, align 4
  %11 = call dereferenceable(280) %"class.std::basic_istream"* @_ZNSirsERi(%"class.std::basic_istream"* @_ZSt3cin, i32* dereferenceable(4) %2)
  %12 = getelementptr inbounds [200 x i8], [200 x i8]* %5, i64 0, i64 0
  %13 = call dereferenceable(280) %"class.std::basic_istream"* @_ZStrsIcSt11char_traitsIcEERSt13basic_istreamIT_T0_ES6_PS3_(%"class.std::basic_istream"* dereferenceable(280) @_ZSt3cin, i8* %12)
  %14 = call dereferenceable(280) %"class.std::basic_istream"* @_ZNSirsERi(%"class.std::basic_istream"* @_ZSt3cin, i32* dereferenceable(4) %3)
  store i32 0, i32* %6, align 4
  br label %15

15:                                               ; preds = %116, %0
  %16 = load i32, i32* %6, align 4
  %17 = sext i32 %16 to i64
  %18 = getelementptr inbounds [200 x i8], [200 x i8]* %5, i64 0, i64 0
  %19 = call i64 @strlen(i8* %18) #6
  %20 = icmp ule i64 %17, %19
  br i1 %20, label %21, label %119

21:                                               ; preds = %15
  store i32 1, i32* %7, align 4
  store i32 1, i32* %8, align 4
  br label %22

22:                                               ; preds = %35, %21
  %23 = load i32, i32* %8, align 4
  %24 = sext i32 %23 to i64
  %25 = getelementptr inbounds [200 x i8], [200 x i8]* %5, i64 0, i64 0
  %26 = call i64 @strlen(i8* %25) #6
  %27 = load i32, i32* %6, align 4
  %28 = sext i32 %27 to i64
  %29 = sub i64 %26, %28
  %30 = icmp ult i64 %24, %29
  br i1 %30, label %31, label %38

31:                                               ; preds = %22
  %32 = load i32, i32* %2, align 4
  %33 = load i32, i32* %7, align 4
  %34 = mul nsw i32 %33, %32
  store i32 %34, i32* %7, align 4
  br label %35

35:                                               ; preds = %31
  %36 = load i32, i32* %8, align 4
  %37 = add nsw i32 %36, 1
  store i32 %37, i32* %8, align 4
  br label %22

38:                                               ; preds = %22
  %39 = load i32, i32* %6, align 4
  %40 = sext i32 %39 to i64
  %41 = getelementptr inbounds [200 x i8], [200 x i8]* %5, i64 0, i64 %40
  %42 = load i8, i8* %41, align 1
  %43 = sext i8 %42 to i32
  %44 = icmp sge i32 %43, 48
  br i1 %44, label %45, label %63

45:                                               ; preds = %38
  %46 = load i32, i32* %6, align 4
  %47 = sext i32 %46 to i64
  %48 = getelementptr inbounds [200 x i8], [200 x i8]* %5, i64 0, i64 %47
  %49 = load i8, i8* %48, align 1
  %50 = sext i8 %49 to i32
  %51 = icmp sle i32 %50, 57
  br i1 %51, label %52, label %63

52:                                               ; preds = %45
  %53 = load i32, i32* %6, align 4
  %54 = sext i32 %53 to i64
  %55 = getelementptr inbounds [200 x i8], [200 x i8]* %5, i64 0, i64 %54
  %56 = load i8, i8* %55, align 1
  %57 = sext i8 %56 to i32
  %58 = sub nsw i32 %57, 48
  %59 = load i32, i32* %7, align 4
  %60 = mul nsw i32 %58, %59
  %61 = load i32, i32* %4, align 4
  %62 = add nsw i32 %61, %60
  store i32 %62, i32* %4, align 4
  br label %63

63:                                               ; preds = %52, %45, %38
  %64 = load i32, i32* %6, align 4
  %65 = sext i32 %64 to i64
  %66 = getelementptr inbounds [200 x i8], [200 x i8]* %5, i64 0, i64 %65
  %67 = load i8, i8* %66, align 1
  %68 = sext i8 %67 to i32
  %69 = icmp sge i32 %68, 97
  br i1 %69, label %70, label %89

70:                                               ; preds = %63
  %71 = load i32, i32* %6, align 4
  %72 = sext i32 %71 to i64
  %73 = getelementptr inbounds [200 x i8], [200 x i8]* %5, i64 0, i64 %72
  %74 = load i8, i8* %73, align 1
  %75 = sext i8 %74 to i32
  %76 = icmp sle i32 %75, 122
  br i1 %76, label %77, label %89

77:                                               ; preds = %70
  %78 = load i32, i32* %6, align 4
  %79 = sext i32 %78 to i64
  %80 = getelementptr inbounds [200 x i8], [200 x i8]* %5, i64 0, i64 %79
  %81 = load i8, i8* %80, align 1
  %82 = sext i8 %81 to i32
  %83 = sub nsw i32 %82, 97
  %84 = add nsw i32 %83, 10
  %85 = load i32, i32* %7, align 4
  %86 = mul nsw i32 %84, %85
  %87 = load i32, i32* %4, align 4
  %88 = add nsw i32 %87, %86
  store i32 %88, i32* %4, align 4
  br label %89

89:                                               ; preds = %77, %70, %63
  %90 = load i32, i32* %6, align 4
  %91 = sext i32 %90 to i64
  %92 = getelementptr inbounds [200 x i8], [200 x i8]* %5, i64 0, i64 %91
  %93 = load i8, i8* %92, align 1
  %94 = sext i8 %93 to i32
  %95 = icmp sge i32 %94, 65
  br i1 %95, label %96, label %115

96:                                               ; preds = %89
  %97 = load i32, i32* %6, align 4
  %98 = sext i32 %97 to i64
  %99 = getelementptr inbounds [200 x i8], [200 x i8]* %5, i64 0, i64 %98
  %100 = load i8, i8* %99, align 1
  %101 = sext i8 %100 to i32
  %102 = icmp sle i32 %101, 90
  br i1 %102, label %103, label %115

103:                                              ; preds = %96
  %104 = load i32, i32* %6, align 4
  %105 = sext i32 %104 to i64
  %106 = getelementptr inbounds [200 x i8], [200 x i8]* %5, i64 0, i64 %105
  %107 = load i8, i8* %106, align 1
  %108 = sext i8 %107 to i32
  %109 = sub nsw i32 %108, 65
  %110 = add nsw i32 %109, 10
  %111 = load i32, i32* %7, align 4
  %112 = mul nsw i32 %110, %111
  %113 = load i32, i32* %4, align 4
  %114 = add nsw i32 %113, %112
  store i32 %114, i32* %4, align 4
  br label %115

115:                                              ; preds = %103, %96, %89
  br label %116

116:                                              ; preds = %115
  %117 = load i32, i32* %6, align 4
  %118 = add nsw i32 %117, 1
  store i32 %118, i32* %6, align 4
  br label %15

119:                                              ; preds = %15
  store i32 0, i32* %10, align 4
  br label %120

120:                                              ; preds = %150, %119
  %121 = load i32, i32* %4, align 4
  %122 = load i32, i32* %3, align 4
  %123 = srem i32 %121, %122
  %124 = icmp sle i32 %123, 9
  br i1 %124, label %125, label %134

125:                                              ; preds = %120
  %126 = load i32, i32* %4, align 4
  %127 = load i32, i32* %3, align 4
  %128 = srem i32 %126, %127
  %129 = add nsw i32 %128, 48
  %130 = trunc i32 %129 to i8
  %131 = load i32, i32* %10, align 4
  %132 = sext i32 %131 to i64
  %133 = getelementptr inbounds [120 x i8], [120 x i8]* %9, i64 0, i64 %132
  store i8 %130, i8* %133, align 1
  br label %144

134:                                              ; preds = %120
  %135 = load i32, i32* %4, align 4
  %136 = load i32, i32* %3, align 4
  %137 = srem i32 %135, %136
  %138 = add nsw i32 %137, 65
  %139 = sub nsw i32 %138, 10
  %140 = trunc i32 %139 to i8
  %141 = load i32, i32* %10, align 4
  %142 = sext i32 %141 to i64
  %143 = getelementptr inbounds [120 x i8], [120 x i8]* %9, i64 0, i64 %142
  store i8 %140, i8* %143, align 1
  br label %144

144:                                              ; preds = %134, %125
  %145 = load i32, i32* %3, align 4
  %146 = load i32, i32* %4, align 4
  %147 = sdiv i32 %146, %145
  store i32 %147, i32* %4, align 4
  %148 = load i32, i32* %10, align 4
  %149 = add nsw i32 %148, 1
  store i32 %149, i32* %10, align 4
  br label %150

150:                                              ; preds = %144
  %151 = load i32, i32* %4, align 4
  %152 = icmp ne i32 %151, 0
  br i1 %152, label %120, label %153

153:                                              ; preds = %150
  br label %154

154:                                              ; preds = %157, %153
  %155 = load i32, i32* %10, align 4
  %156 = icmp sge i32 %155, 1
  br i1 %156, label %157, label %166

157:                                              ; preds = %154
  %158 = load i32, i32* %10, align 4
  %159 = sub nsw i32 %158, 1
  %160 = sext i32 %159 to i64
  %161 = getelementptr inbounds [120 x i8], [120 x i8]* %9, i64 0, i64 %160
  %162 = load i8, i8* %161, align 1
  %163 = call dereferenceable(272) %"class.std::basic_ostream"* @_ZStlsISt11char_traitsIcEERSt13basic_ostreamIcT_ES5_c(%"class.std::basic_ostream"* dereferenceable(272) @_ZSt4cout, i8 signext %162)
  %164 = load i32, i32* %10, align 4
  %165 = add nsw i32 %164, -1
  store i32 %165, i32* %10, align 4
  br label %154

166:                                              ; preds = %154
  ret i32 0
}

declare dso_local dereferenceable(280) %"class.std::basic_istream"* @_ZNSirsERi(%"class.std::basic_istream"*, i32* dereferenceable(4)) #1

declare dso_local dereferenceable(280) %"class.std::basic_istream"* @_ZStrsIcSt11char_traitsIcEERSt13basic_istreamIT_T0_ES6_PS3_(%"class.std::basic_istream"* dereferenceable(280), i8*) #1

; Function Attrs: nounwind readonly
declare dso_local i64 @strlen(i8*) #5

declare dso_local dereferenceable(272) %"class.std::basic_ostream"* @_ZStlsISt11char_traitsIcEERSt13basic_ostreamIcT_ES5_c(%"class.std::basic_ostream"* dereferenceable(272), i8 signext) #1

; Function Attrs: noinline uwtable
define internal void @_GLOBAL__sub_I_1651.cpp() #0 section ".text.startup" {
  call void @__cxx_global_var_init()
  ret void
}


!llvm.module.flags = !{!0}
!llvm.ident = !{!1}

!0 = !{i32 1, !"wchar_size", i32 4}
!1 = !{!"clang version 10.0.0-4ubuntu1 "}
